Certificate:
    Data:
        Version: 3 (0x2)
        Serial Number:
            aa:6e:00:73:ad:27:61:0f:d7:f0:c5:64:4e:ce:30:a8
        Signature Algorithm: sha256WithRSAEncryption
        Issuer: C=US, ST=New York, L=Armonk, O=IBM Cloud Private, CN=www.ibm.com
        Validity
            Not Before: Jun 11 21:45:15 2020 GMT
            Not After : Jun 11 21:45:15 2022 GMT
        Subject: C=US, ST=New York, L=Armonk, O=IBM Private Cloud, CN=tiller
        Subject Public Key Info:
            Public Key Algorithm: rsaEncryption
                RSA Public-Key: (2048 bit)
                Modulus:
                    00:c9:35:43:92:ed:52:b0:d6:29:06:53:1d:7e:5d:
                    51:6b:84:5f:17:1e:64:3b:a4:c0:95:85:2b:24:39:
                    e8:77:79:ea:90:19:54:ab:d9:69:8c:27:32:f5:c8:
                    45:68:a6:73:3f:e4:6c:25:d0:07:1d:f2:28:87:16:
                    a9:d4:d8:d8:e7:8b:e5:f2:0a:8f:46:cb:91:72:5f:
                    ed:27:b9:2c:88:19:3d:8c:b5:22:83:a2:32:52:6a:
                    ac:9e:8e:47:53:67:4d:17:2b:8d:d8:57:f0:da:b3:
                    8b:7a:33:39:74:77:de:e0:18:b7:8d:17:19:6f:6d:
                    28:4d:64:e9:3e:d0:f4:0e:a5:f6:67:2f:47:3e:d7:
                    31:d2:d5:23:d3:a0:47:ed:db:b6:97:3f:87:8a:84:
                    77:22:2b:de:70:19:e1:2b:0f:e4:5b:92:b9:d2:54:
                    ba:6d:90:7f:22:0e:07:f2:6f:17:3b:29:ac:bc:0b:
                    a3:23:59:bb:35:96:ce:a2:1c:89:a5:39:b6:fd:3a:
                    19:3d:1b:08:87:33:e5:18:6d:27:a7:c1:34:6c:4c:
                    98:a6:b5:1e:66:0d:17:2e:59:e7:a0:15:c9:40:3e:
                    86:e0:0a:c3:36:fc:10:d7:a7:1c:b7:77:38:89:a7:
                    3d:5b:47:aa:96:d5:95:d1:d3:64:f3:b1:17:23:7a:
                    97:89
                Exponent: 65537 (0x10001)
        X509v3 extensions:
            X509v3 Basic Constraints: 
                CA:FALSE
            X509v3 Subject Key Identifier: 
                49:18:8C:48:43:A4:B5:CF:70:18:F0:76:A3:14:C1:F5:D0:54:F6:70
            X509v3 Authority Key Identifier: 
                keyid:F0:B0:A0:49:A5:D3:B8:77:94:69:00:05:8F:7F:4A:BC:BB:47:EB:DA
                DirName:/C=US/ST=New York/L=Armonk/O=IBM Cloud Private/CN=www.ibm.com
                serial:4D:67:A7:60:41:9B:DC:2B:4E:F9:B5:7D:9B:96:7C:24:CC:43:FF:B5

            X509v3 Extended Key Usage: 
                TLS Web Server Authentication, TLS Web Client Authentication
            X509v3 Key Usage: 
                Digital Signature, Key Encipherment
            X509v3 Subject Alternative Name: 
                DNS:tiller-deploy, DNS:tiller-deploy.kube-system, DNS:tiller-deploy.kube-system:44134, DNS:tiller-deploy.kube-system.svc, DNS:icp-console.apps.cp4mcm-demo.ocp.csplab.local
    Signature Algorithm: sha256WithRSAEncryption
         7a:4a:29:2c:ab:f8:2e:7d:14:99:86:75:af:ff:ee:d2:5f:1e:
         9c:72:45:0c:e8:ac:d4:b2:6c:c8:ce:bd:aa:c4:24:4f:42:3d:
         0a:c4:72:9f:39:29:a3:15:b8:8a:e9:a0:2a:77:08:1f:f4:2f:
         cb:de:1b:03:f6:1b:f8:58:64:38:ba:45:58:82:f2:71:59:0f:
         0b:d4:96:44:38:7d:bc:0a:08:e8:cb:04:1c:f5:ff:ad:c4:87:
         88:30:ac:f6:71:0c:65:a2:7c:a2:21:ca:2a:b4:32:6f:5a:ec:
         11:f8:42:8f:1e:ee:d4:73:55:cd:b8:ef:7f:33:1c:f8:b1:ad:
         7e:d7:7c:0e:98:76:87:fc:5e:25:73:e6:91:01:42:3d:bb:9c:
         5a:f4:ce:1f:b8:3b:b3:f8:e7:61:93:ca:6b:f1:4a:12:45:0c:
         00:bc:4f:57:09:b6:28:88:51:02:b5:08:d4:22:a6:84:91:28:
         4f:d0:34:df:a5:e9:27:24:c2:28:86:c9:6b:3a:df:ad:78:7b:
         4e:59:a0:69:2b:bc:c2:c9:8b:c3:fe:e6:f6:53:a7:6c:ba:94:
         51:e8:3a:de:07:ef:7a:0c:87:6b:2e:57:ea:0c:75:76:89:d3:
         14:62:55:82:3d:18:89:2d:2c:b2:1d:f9:46:71:27:ce:b1:60:
         78:ac:de:77:66:a3:82:1b:b5:21:52:75:f6:b6:91:85:a9:8c:
         52:d2:cb:8e:5a:ba:1c:0e:a6:af:bb:1c:1f:97:1a:a2:fd:50:
         9d:62:af:8c:c0:54:f1:9e:83:56:b5:53:1e:5c:ab:92:bd:62:
         9d:95:a0:8c:3a:1f:8d:17:1e:15:b3:fe:d7:06:c4:cb:5e:17:
         bc:b0:8a:dd:dd:26:3d:39:66:73:62:95:bc:11:be:32:74:ac:
         99:b7:84:f4:6b:90:ca:23:e8:0e:20:b7:d5:c4:f2:42:92:c4:
         26:fa:f0:7f:7b:e2:6e:a9:84:11:82:da:f4:a9:27:85:c6:ed:
         cb:06:b5:4f:8f:a7:40:b2:6c:95:c4:28:6d:2e:46:b6:5a:0c:
         75:08:66:4d:5e:b6:75:92:fc:54:7c:c3:72:5b:50:07:cf:3f:
         d8:dc:ff:7d:a9:d1:60:4c:fe:a3:2b:41:67:20:61:85:b3:3c:
         c4:b3:58:f2:43:f9:18:c6:ac:f7:8f:dc:3c:7d:d6:c2:9a:42:
         75:1f:4e:d5:c6:0a:a0:17:76:d7:47:01:33:59:f8:da:9b:6a:
         1a:fb:ba:b9:03:e4:f4:cb:3a:07:c0:ea:46:8b:38:69:f8:0f:
         a2:b5:09:4b:65:cb:c1:ed:60:39:85:37:fa:b4:70:50:08:d4:
         05:b1:1f:8d:7a:db:a6:ab
-----BEGIN CERTIFICATE-----
MIIF8jCCA9qgAwIBAgIRAKpuAHOtJ2EP1/DFZE7OMKgwDQYJKoZIhvcNAQELBQAw
YzELMAkGA1UEBhMCVVMxETAPBgNVBAgMCE5ldyBZb3JrMQ8wDQYDVQQHDAZBcm1v
bmsxGjAYBgNVBAoMEUlCTSBDbG91ZCBQcml2YXRlMRQwEgYDVQQDDAt3d3cuaWJt
LmNvbTAeFw0yMDA2MTEyMTQ1MTVaFw0yMjA2MTEyMTQ1MTVaMF4xCzAJBgNVBAYT
AlVTMREwDwYDVQQIDAhOZXcgWW9yazEPMA0GA1UEBwwGQXJtb25rMRowGAYDVQQK
DBFJQk0gUHJpdmF0ZSBDbG91ZDEPMA0GA1UEAwwGdGlsbGVyMIIBIjANBgkqhkiG
9w0BAQEFAAOCAQ8AMIIBCgKCAQEAyTVDku1SsNYpBlMdfl1Ra4RfFx5kO6TAlYUr
JDnod3nqkBlUq9lpjCcy9chFaKZzP+RsJdAHHfIohxap1NjY54vl8gqPRsuRcl/t
J7ksiBk9jLUig6IyUmqsno5HU2dNFyuN2Ffw2rOLejM5dHfe4Bi3jRcZb20oTWTp
PtD0DqX2Zy9HPtcx0tUj06BH7du2lz+HioR3IivecBnhKw/kW5K50lS6bZB/Ig4H
8m8XOymsvAujI1m7NZbOohyJpTm2/ToZPRsIhzPlGG0np8E0bEyYprUeZg0XLlnn
oBXJQD6G4ArDNvwQ16cct3c4iac9W0eqltWV0dNk87EXI3qXiQIDAQABo4IBpDCC
AaAwCQYDVR0TBAIwADAdBgNVHQ4EFgQUSRiMSEOktc9wGPB2oxTB9dBU9nAwgaAG
A1UdIwSBmDCBlYAU8LCgSaXTuHeUaQAFj39KvLtH69qhZ6RlMGMxCzAJBgNVBAYT
AlVTMREwDwYDVQQIDAhOZXcgWW9yazEPMA0GA1UEBwwGQXJtb25rMRowGAYDVQQK
DBFJQk0gQ2xvdWQgUHJpdmF0ZTEUMBIGA1UEAwwLd3d3LmlibS5jb22CFE1np2BB
m9wrTvm1fZuWfCTMQ/+1MB0GA1UdJQQWMBQGCCsGAQUFBwMBBggrBgEFBQcDAjAL
BgNVHQ8EBAMCBaAwgaQGA1UdEQSBnDCBmYINdGlsbGVyLWRlcGxveYIZdGlsbGVy
LWRlcGxveS5rdWJlLXN5c3RlbYIfdGlsbGVyLWRlcGxveS5rdWJlLXN5c3RlbTo0
NDEzNIIddGlsbGVyLWRlcGxveS5rdWJlLXN5c3RlbS5zdmOCLWljcC1jb25zb2xl
LmFwcHMuY3A0bWNtLWRlbW8ub2NwLmNzcGxhYi5sb2NhbDANBgkqhkiG9w0BAQsF
AAOCAgEAekopLKv4Ln0UmYZ1r//u0l8enHJFDOis1LJsyM69qsQkT0I9CsRynzkp
oxW4iumgKncIH/Qvy94bA/Yb+FhkOLpFWILycVkPC9SWRDh9vAoI6MsEHPX/rcSH
iDCs9nEMZaJ8oiHKKrQyb1rsEfhCjx7u1HNVzbjvfzMc+LGtftd8Dph2h/xeJXPm
kQFCPbucWvTOH7g7s/jnYZPKa/FKEkUMALxPVwm2KIhRArUI1CKmhJEoT9A036Xp
JyTCKIbJazrfrXh7TlmgaSu8wsmLw/7m9lOnbLqUUeg63gfvegyHay5X6gx1donT
FGJVgj0YiS0ssh35RnEnzrFgeKzed2ajghu1IVJ19raRhamMUtLLjlq6HA6mr7sc
H5caov1QnWKvjMBU8Z6DVrVTHlyrkr1inZWgjDofjRceFbP+1wbEy14XvLCK3d0m
PTlmc2KVvBG+MnSsmbeE9GuQyiPoDiC31cTyQpLEJvrwf3vibqmEEYLa9Kknhcbt
ywa1T4+nQLJslcQobS5GtloMdQhmTV62dZL8VHzDcltQB88/2Nz/fanRYEz+oytB
ZyBhhbM8xLNY8kP5GMas94/cPH3WwppCdR9O1cYKoBd210cBM1n42ptqGvu6uQPk
9Ms6B8DqRos4afgPorUJS2XLwe1gOYU3+rRwUAjUBbEfjXrbpqs=
-----END CERTIFICATE-----
